target datalayout = "e-m:e-p270:32:32-p271:32:32-p272:64:64-i64:64-i128:128-f80:128-n8:16:32:64-S128"
target triple = "x86_64-pc-linux-gnu"

; Function Attrs: nounwind uwtable
define internal i32 @Abc_LitNot(i32 noundef %0) #0 {
  %2 = alloca i32, align 4
  store i32 %0, ptr %2, align 4
  %3 = load i32, ptr %2, align 4
  %4 = xor i32 %3, 1
  ret i32 %4
}

; Function Attrs: nounwind uwtable
define i32 @Cba_BlastLess2(ptr noundef %0, ptr noundef %1, ptr noundef %2, i32 noundef %3) #0 {
  %5 = alloca ptr, align 8
  %6 = alloca ptr, align 8
  %7 = alloca ptr, align 8
  %8 = alloca i32, align 4
  %9 = alloca i32, align 4
  %10 = alloca i32, align 4
  %11 = alloca i32, align 4
  store ptr %0, ptr %5, align 8
  store ptr %1, ptr %6, align 8
  store ptr %2, ptr %7, align 8
  store i32 %3, ptr %8, align 4
  store i32 0, ptr %10, align 4
  store i32 0, ptr %11, align 4
  %12 = load i32, ptr %8, align 4
  %13 = sub nsw i32 %12, 1
  store i32 %13, ptr %9, align 4
  br label %14

14:                                               ; preds = %54, %4
  %15 = load i32, ptr %9, align 4
  %16 = icmp sge i32 %15, 0
  br i1 %16, label %17, label %57

17:                                               ; preds = %14
  %18 = load ptr, ptr %5, align 8
  %19 = load i32, ptr %10, align 4
  %20 = load i32, ptr %11, align 4
  %21 = load ptr, ptr %5, align 8
  %22 = load ptr, ptr %6, align 8
  %23 = load i32, ptr %9, align 4
  %24 = sext i32 %23 to i64
  %25 = getelementptr inbounds i32, ptr %22, i64 %24
  %26 = load i32, ptr %25, align 4
  %27 = call i32 @Abc_LitNot(i32 noundef %26)
  %28 = load ptr, ptr %7, align 8
  %29 = load i32, ptr %9, align 4
  %30 = sext i32 %29 to i64
  %31 = getelementptr inbounds i32, ptr %28, i64 %30
  %32 = load i32, ptr %31, align 4
  %33 = call i32 @Gia_ManHashAnd(ptr noundef %21, i32 noundef %27, i32 noundef %32)
  %34 = call i32 @Gia_ManHashMux(ptr noundef %18, i32 noundef %19, i32 noundef %20, i32 noundef %33)
  store i32 %34, ptr %11, align 4
  %35 = load ptr, ptr %5, align 8
  %36 = load i32, ptr %10, align 4
  %37 = load ptr, ptr %5, align 8
  %38 = load ptr, ptr %6, align 8
  %39 = load i32, ptr %9, align 4
  %40 = sext i32 %39 to i64
  %41 = getelementptr inbounds i32, ptr %38, i64 %40
  %42 = load i32, ptr %41, align 4
  %43 = load ptr, ptr %7, align 8
  %44 = load i32, ptr %9, align 4
  %45 = sext i32 %44 to i64
  %46 = getelementptr inbounds i32, ptr %43, i64 %45
  %47 = load i32, ptr %46, align 4
  %48 = call i32 @Gia_ManHashXor(ptr noundef %37, i32 noundef %42, i32 noundef %47)
  %49 = call i32 @Gia_ManHashOr(ptr noundef %35, i32 noundef %36, i32 noundef %48)
  store i32 %49, ptr %10, align 4
  %50 = load i32, ptr %10, align 4
  %51 = icmp eq i32 %50, 1
  br i1 %51, label %52, label %53

52:                                               ; preds = %17
  br label %57

53:                                               ; preds = %17
  br label %54

54:                                               ; preds = %53
  %55 = load i32, ptr %9, align 4
  %56 = add nsw i32 %55, -1
  store i32 %56, ptr %9, align 4
  br label %14, !llvm.loop !26

57:                                               ; preds = %52, %14
  %58 = load i32, ptr %11, align 4
  ret i32 %58
}