; Function Attrs: nounwind uwtable
define i32 @Cba_BlastLess2(ptr noundef %0, ptr noundef readonly captures(none) %1, ptr noundef readonly captures(none) %2, i32 noundef %3) local_unnamed_addr #0 {
  %5 = zext i32 %3 to i64
  br label %6

6:                                                ; preds = %9, %4
  %indvars.iv = phi i64 [ %10, %9 ], [ %5, %4 ]
  %.019 = phi i32 [ %21, %9 ], [ 0, %4 ]
  %.0 = phi i32 [ %17, %9 ], [ 0, %4 ]
  %7 = trunc nuw i64 %indvars.iv to i32
  %8 = icmp sgt i32 %7, 0
  br i1 %8, label %9, label %23

9:                                                ; preds = %6
  %10 = add nsw i64 %indvars.iv, -1
  %11 = getelementptr inbounds nuw i32, ptr %1, i64 %10
  %12 = load i32, ptr %11, align 4
  %13 = xor i32 %12, 1
  %14 = getelementptr inbounds nuw i32, ptr %2, i64 %10
  %15 = load i32, ptr %14, align 4
  %16 = tail call i32 @Gia_ManHashAnd(ptr noundef %0, i32 noundef %13, i32 noundef %15) #20
  %17 = tail call i32 @Gia_ManHashMux(ptr noundef %0, i32 noundef %.019, i32 noundef %.0, i32 noundef %16) #20
  %18 = load i32, ptr %11, align 4
  %19 = load i32, ptr %14, align 4
  %20 = tail call i32 @Gia_ManHashXor(ptr noundef %0, i32 noundef %18, i32 noundef %19) #20
  %21 = tail call i32 @Gia_ManHashOr(ptr noundef %0, i32 noundef %.019, i32 noundef %20) #20
  %22 = icmp eq i32 %21, 1
  br i1 %22, label %23, label %6, !llvm.loop !26

23:                                               ; preds = %9, %6
  %.1 = phi i32 [ %17, %9 ], [ %.0, %6 ]
  ret i32 %.1
}